target datalayout = "e-m:e-p270:32:32-p271:32:32-p272:64:64-i64:64-i128:128-f80:128-n8:16:32:64-S128"
target triple = "x86_64-pc-linux-gnu"

%struct.lua_TValue = type { %union.Value, [1 x i32], i32 }
%union.Value = type { ptr }
%struct.lua_State = type { i8, i8, i8, i8, i8, i8, i8, ptr, ptr, ptr, ptr, ptr, ptr, ptr, ptr, i32, i32, i16, i16, i32, ptr, ptr, ptr, ptr, ptr }
%struct.ResolveImport = type { ptr, i32 }

; Function Attrs: mustprogress uwtable
define hidden void @_Z14luaV_getimportP9lua_StateP8LuaTableP10lua_TValueS4_jb(ptr noundef %0, ptr noundef %1, ptr noundef %2, ptr noundef %3, i32 noundef %4, i1 noundef zeroext %5) #0 {
  %7 = alloca ptr, align 8
  %8 = alloca ptr, align 8
  %9 = alloca ptr, align 8
  %10 = alloca ptr, align 8
  %11 = alloca i32, align 4
  %12 = alloca i8, align 1
  %13 = alloca i32, align 4
  %14 = alloca i32, align 4
  %15 = alloca i32, align 4
  %16 = alloca i32, align 4
  %17 = alloca i64, align 8
  %18 = alloca %struct.lua_TValue, align 8
  %19 = alloca ptr, align 8
  %20 = alloca i32, align 4
  store ptr %0, ptr %7, align 8, !tbaa !4
  store ptr %1, ptr %8, align 8, !tbaa !9
  store ptr %2, ptr %9, align 8, !tbaa !11
  store ptr %3, ptr %10, align 8, !tbaa !11
  store i32 %4, ptr %11, align 4, !tbaa !13
  %21 = zext i1 %5 to i8
  store i8 %21, ptr %12, align 1, !tbaa !15
  call void @llvm.lifetime.start.p0(i64 4, ptr %13) #9
  %22 = load i32, ptr %11, align 4, !tbaa !13
  %23 = lshr i32 %22, 30
  store i32 %23, ptr %13, align 4, !tbaa !13
  call void @llvm.lifetime.start.p0(i64 4, ptr %14) #9
  %24 = load i32, ptr %11, align 4, !tbaa !13
  %25 = lshr i32 %24, 20
  %26 = and i32 %25, 1023
  store i32 %26, ptr %14, align 4, !tbaa !13
  call void @llvm.lifetime.start.p0(i64 4, ptr %15) #9
  %27 = load i32, ptr %11, align 4, !tbaa !13
  %28 = lshr i32 %27, 10
  %29 = and i32 %28, 1023
  store i32 %29, ptr %15, align 4, !tbaa !13
  call void @llvm.lifetime.start.p0(i64 4, ptr %16) #9
  %30 = load i32, ptr %11, align 4, !tbaa !13
  %31 = and i32 %30, 1023
  store i32 %31, ptr %16, align 4, !tbaa !13
  call void @llvm.lifetime.start.p0(i64 8, ptr %17) #9
  %32 = load ptr, ptr %10, align 8, !tbaa !11
  %33 = load ptr, ptr %7, align 8, !tbaa !4
  %34 = getelementptr inbounds nuw %struct.lua_State, ptr %33, i32 0, i32 12
  %35 = load ptr, ptr %34, align 8, !tbaa !17
  %36 = ptrtoint ptr %32 to i64
  %37 = ptrtoint ptr %35 to i64
  %38 = sub i64 %36, %37
  store i64 %38, ptr %17, align 8, !tbaa !25
  call void @llvm.lifetime.start.p0(i64 16, ptr %18) #9
  call void @llvm.lifetime.start.p0(i64 8, ptr %19) #9
  store ptr %18, ptr %19, align 8, !tbaa !11
  %39 = load ptr, ptr %8, align 8, !tbaa !9
  %40 = load ptr, ptr %19, align 8, !tbaa !11
  %41 = getelementptr inbounds nuw %struct.lua_TValue, ptr %40, i32 0, i32 0
  store ptr %39, ptr %41, align 8, !tbaa !27
  %42 = load ptr, ptr %19, align 8, !tbaa !11
  %43 = getelementptr inbounds nuw %struct.lua_TValue, ptr %42, i32 0, i32 2
  store i32 6, ptr %43, align 4, !tbaa !28
  call void @llvm.lifetime.end.p0(i64 8, ptr %19) #9
  %44 = load ptr, ptr %7, align 8, !tbaa !4
  %45 = load ptr, ptr %9, align 8, !tbaa !11
  %46 = load i32, ptr %14, align 4, !tbaa !13
  %47 = sext i32 %46 to i64
  %48 = getelementptr inbounds %struct.lua_TValue, ptr %45, i64 %47
  %49 = load ptr, ptr %10, align 8, !tbaa !11
  call void @_Z13luaV_gettableP9lua_StatePK10lua_TValuePS1_S4_(ptr noundef %44, ptr noundef %18, ptr noundef %48, ptr noundef %49)
  %50 = load i32, ptr %13, align 4, !tbaa !13
  %51 = icmp slt i32 %50, 2
  br i1 %51, label %52, label %53

52:                                               ; preds = %6
  store i32 1, ptr %20, align 4
  br label %100

53:                                               ; preds = %6
  %54 = load ptr, ptr %7, align 8, !tbaa !4
  %55 = getelementptr inbounds nuw %struct.lua_State, ptr %54, i32 0, i32 12
  %56 = load ptr, ptr %55, align 8, !tbaa !17
  %57 = load i64, ptr %17, align 8, !tbaa !25
  %58 = getelementptr inbounds i8, ptr %56, i64 %57
  store ptr %58, ptr %10, align 8, !tbaa !11
  %59 = load i8, ptr %12, align 1, !tbaa !15, !range !30, !noundef !31
  %60 = trunc i8 %59 to i1
  br i1 %60, label %61, label %66

61:                                               ; preds = %53
  %62 = load ptr, ptr %10, align 8, !tbaa !11
  %63 = getelementptr inbounds nuw %struct.lua_TValue, ptr %62, i32 0, i32 2
  %64 = load i32, ptr %63, align 4, !tbaa !28
  %65 = icmp eq i32 %64, 0
  br i1 %65, label %74, label %66

66:                                               ; preds = %61, %53
  %67 = load ptr, ptr %7, align 8, !tbaa !4
  %68 = load ptr, ptr %10, align 8, !tbaa !11
  %69 = load ptr, ptr %9, align 8, !tbaa !11
  %70 = load i32, ptr %15, align 4, !tbaa !13
  %71 = sext i32 %70 to i64
  %72 = getelementptr inbounds %struct.lua_TValue, ptr %69, i64 %71
  %73 = load ptr, ptr %10, align 8, !tbaa !11
  call void @_Z13luaV_gettableP9lua_StatePK10lua_TValuePS1_S4_(ptr noundef %67, ptr noundef %68, ptr noundef %72, ptr noundef %73)
  br label %74

74:                                               ; preds = %66, %61
  %75 = load i32, ptr %13, align 4, !tbaa !13
  %76 = icmp slt i32 %75, 3
  br i1 %76, label %77, label %78

77:                                               ; preds = %74
  store i32 1, ptr %20, align 4
  br label %100

78:                                               ; preds = %74
  %79 = load ptr, ptr %7, align 8, !tbaa !4
  %80 = getelementptr inbounds nuw %struct.lua_State, ptr %79, i32 0, i32 12
  %81 = load ptr, ptr %80, align 8, !tbaa !17
  %82 = load i64, ptr %17, align 8, !tbaa !25
  %83 = getelementptr inbounds i8, ptr %81, i64 %82
  store ptr %83, ptr %10, align 8, !tbaa !11
  %84 = load i8, ptr %12, align 1, !tbaa !15, !range !30, !noundef !31
  %85 = trunc i8 %84 to i1
  br i1 %85, label %86, label %91

86:                                               ; preds = %78
  %87 = load ptr, ptr %10, align 8, !tbaa !11
  %88 = getelementptr inbounds nuw %struct.lua_TValue, ptr %87, i32 0, i32 2
  %89 = load i32, ptr %88, align 4, !tbaa !28
  %90 = icmp eq i32 %89, 0
  br i1 %90, label %99, label %91

91:                                               ; preds = %86, %78
  %92 = load ptr, ptr %7, align 8, !tbaa !4
  %93 = load ptr, ptr %10, align 8, !tbaa !11
  %94 = load ptr, ptr %9, align 8, !tbaa !11
  %95 = load i32, ptr %16, align 4, !tbaa !13
  %96 = sext i32 %95 to i64
  %97 = getelementptr inbounds %struct.lua_TValue, ptr %94, i64 %96
  %98 = load ptr, ptr %10, align 8, !tbaa !11
  call void @_Z13luaV_gettableP9lua_StatePK10lua_TValuePS1_S4_(ptr noundef %92, ptr noundef %93, ptr noundef %97, ptr noundef %98)
  br label %99

99:                                               ; preds = %91, %86
  store i32 0, ptr %20, align 4
  br label %100

100:                                              ; preds = %99, %77, %52
  call void @llvm.lifetime.end.p0(i64 16, ptr %18) #9
  call void @llvm.lifetime.end.p0(i64 8, ptr %17) #9
  call void @llvm.lifetime.end.p0(i64 4, ptr %16) #9
  call void @llvm.lifetime.end.p0(i64 4, ptr %15) #9
  call void @llvm.lifetime.end.p0(i64 4, ptr %14) #9
  call void @llvm.lifetime.end.p0(i64 4, ptr %13) #9
  %101 = load i32, ptr %20, align 4
  switch i32 %101, label %103 [
    i32 0, label %102
    i32 1, label %102
  ]

102:                                              ; preds = %100, %100
  ret void

103:                                              ; preds = %100
  unreachable
}

; Function Attrs: mustprogress uwtable
define internal void @_ZZL17resolveImportSafeP9lua_StateP8LuaTableP10lua_TValuejEN13ResolveImport3runES0_Pv(ptr noundef %0, ptr noundef %1) #0 align 2 {
  %3 = alloca ptr, align 8
  %4 = alloca ptr, align 8
  %5 = alloca ptr, align 8
  store ptr %0, ptr %3, align 8, !tbaa !4
  store ptr %1, ptr %4, align 8, !tbaa !53
  call void @llvm.lifetime.start.p0(i64 8, ptr %5) #9
  %6 = load ptr, ptr %4, align 8, !tbaa !53
  store ptr %6, ptr %5, align 8, !tbaa !148
  %7 = load ptr, ptr %3, align 8, !tbaa !4
  %8 = getelementptr inbounds nuw %struct.lua_State, ptr %7, i32 0, i32 11
  %9 = load ptr, ptr %8, align 8, !tbaa !117
  %10 = load ptr, ptr %3, align 8, !tbaa !4
  %11 = getelementptr inbounds nuw %struct.lua_State, ptr %10, i32 0, i32 7
  %12 = load ptr, ptr %11, align 8, !tbaa !85
  %13 = ptrtoint ptr %9 to i64
  %14 = ptrtoint ptr %12 to i64
  %15 = sub i64 %13, %14
  %16 = icmp sle i64 %15, 16
  br i1 %16, label %17, label %19

17:                                               ; preds = %2
  %18 = load ptr, ptr %3, align 8, !tbaa !4
  call void @_Z14luaD_growstackP9lua_Statei(ptr noundef %18, i32 noundef 1)
  br label %20

19:                                               ; preds = %2
  br label %20

20:                                               ; preds = %19, %17
  %21 = load ptr, ptr %3, align 8, !tbaa !4
  %22 = getelementptr inbounds nuw %struct.lua_State, ptr %21, i32 0, i32 7
  %23 = load ptr, ptr %22, align 8, !tbaa !85
  %24 = getelementptr inbounds nuw %struct.lua_TValue, ptr %23, i32 0, i32 2
  store i32 0, ptr %24, align 4, !tbaa !28
  %25 = load ptr, ptr %3, align 8, !tbaa !4
  %26 = getelementptr inbounds nuw %struct.lua_State, ptr %25, i32 0, i32 7
  %27 = load ptr, ptr %26, align 8, !tbaa !85
  %28 = getelementptr inbounds nuw %struct.lua_TValue, ptr %27, i32 1
  store ptr %28, ptr %26, align 8, !tbaa !85
  %29 = load ptr, ptr %3, align 8, !tbaa !4
  %30 = load ptr, ptr %3, align 8, !tbaa !4
  %31 = getelementptr inbounds nuw %struct.lua_State, ptr %30, i32 0, i32 20
  %32 = load ptr, ptr %31, align 8, !tbaa !48
  %33 = load ptr, ptr %5, align 8, !tbaa !148
  %34 = getelementptr inbounds nuw %struct.ResolveImport, ptr %33, i32 0, i32 0
  %35 = load ptr, ptr %34, align 8, !tbaa !142
  %36 = load ptr, ptr %3, align 8, !tbaa !4
  %37 = getelementptr inbounds nuw %struct.lua_State, ptr %36, i32 0, i32 7
  %38 = load ptr, ptr %37, align 8, !tbaa !85
  %39 = getelementptr inbounds %struct.lua_TValue, ptr %38, i64 -1
  %40 = load ptr, ptr %5, align 8, !tbaa !148
  %41 = getelementptr inbounds nuw %struct.ResolveImport, ptr %40, i32 0, i32 1
  %42 = load i32, ptr %41, align 8, !tbaa !144
  call void @_Z14luaV_getimportP9lua_StateP8LuaTableP10lua_TValueS4_jb(ptr noundef %29, ptr noundef %32, ptr noundef %35, ptr noundef %39, i32 noundef %42, i1 noundef zeroext true)
  call void @llvm.lifetime.end.p0(i64 8, ptr %5) #9
  ret void
}