; Function Attrs: mustprogress uwtable
define internal void @_ZZL17resolveImportSafeP9lua_StateP8LuaTableP10lua_TValuejEN13ResolveImport3runES0_Pv(ptr noundef %0, ptr noundef readonly captures(none) %1) #0 align 2 {
  %3 = alloca %struct.lua_TValue, align 8
  %4 = getelementptr inbounds nuw i8, ptr %0, i64 40
  %5 = load ptr, ptr %4, align 8, !tbaa !121
  %6 = getelementptr inbounds nuw i8, ptr %0, i64 8
  %7 = load ptr, ptr %6, align 8, !tbaa !89
  %8 = ptrtoint ptr %5 to i64
  %9 = ptrtoint ptr %7 to i64
  %10 = sub i64 %8, %9
  %11 = icmp slt i64 %10, 17
  br i1 %11, label %12, label %13

12:                                               ; preds = %2
  tail call void @_Z14luaD_growstackP9lua_Statei(ptr noundef nonnull %0, i32 noundef 1)
  %.pre = load ptr, ptr %6, align 8, !tbaa !89
  %.pre11 = ptrtoint ptr %.pre to i64
  br label %13

13:                                               ; preds = %2, %12
  %.pre-phi = phi i64 [ %9, %2 ], [ %.pre11, %12 ]
  %14 = phi ptr [ %7, %2 ], [ %.pre, %12 ]
  %15 = getelementptr inbounds nuw i8, ptr %14, i64 12
  store i32 0, ptr %15, align 4, !tbaa !20
  %16 = getelementptr inbounds nuw i8, ptr %14, i64 16
  store ptr %16, ptr %6, align 8, !tbaa !89
  %17 = getelementptr inbounds nuw i8, ptr %0, i64 88
  %18 = load ptr, ptr %17, align 8, !tbaa !85
  %19 = load ptr, ptr %1, align 8, !tbaa !82
  %20 = getelementptr inbounds nuw i8, ptr %1, i64 8
  %21 = load i32, ptr %20, align 8, !tbaa !84
  %22 = lshr i32 %21, 20
  %23 = and i32 %22, 1023
  %24 = lshr i32 %21, 10
  %25 = and i32 %24, 1023
  %26 = and i32 %21, 1023
  %27 = getelementptr inbounds nuw i8, ptr %0, i64 48
  %28 = load ptr, ptr %27, align 8, !tbaa !4
  %29 = ptrtoint ptr %28 to i64
  %30 = sub i64 %.pre-phi, %29
  call void @llvm.lifetime.start.p0(i64 16, ptr nonnull %3) #10
  store ptr %18, ptr %3, align 8, !tbaa !19
  %31 = getelementptr inbounds nuw i8, ptr %3, i64 12
  store i32 6, ptr %31, align 4, !tbaa !20
  %32 = zext nneg i32 %23 to i64
  %33 = getelementptr inbounds nuw %struct.lua_TValue, ptr %19, i64 %32
  call void @_Z13luaV_gettableP9lua_StatePK10lua_TValuePS1_S4_(ptr noundef nonnull %0, ptr noundef nonnull %3, ptr noundef %33, ptr noundef %14)
  %34 = icmp sgt i32 %21, -1
  br i1 %34, label %_Z14luaV_getimportP9lua_StateP8LuaTableP10lua_TValueS4_jb.exit, label %35

35:                                               ; preds = %13
  %36 = load ptr, ptr %27, align 8, !tbaa !4
  %37 = getelementptr inbounds i8, ptr %36, i64 %30
  %38 = getelementptr inbounds nuw i8, ptr %37, i64 12
  %39 = load i32, ptr %38, align 4, !tbaa !20
  %40 = icmp eq i32 %39, 0
  br i1 %40, label %_Z14luaV_getimportP9lua_StateP8LuaTableP10lua_TValueS4_jb.exit, label %41

41:                                               ; preds = %35
  %42 = zext nneg i32 %25 to i64
  %43 = getelementptr inbounds nuw %struct.lua_TValue, ptr %19, i64 %42
  call void @_Z13luaV_gettableP9lua_StatePK10lua_TValuePS1_S4_(ptr noundef nonnull %0, ptr noundef nonnull %37, ptr noundef %43, ptr noundef nonnull %37)
  %.not.i = icmp samesign ugt i32 %21, -1073741825
  br i1 %.not.i, label %44, label %_Z14luaV_getimportP9lua_StateP8LuaTableP10lua_TValueS4_jb.exit

44:                                               ; preds = %41
  %45 = load ptr, ptr %27, align 8, !tbaa !4
  %46 = getelementptr inbounds i8, ptr %45, i64 %30
  %.phi.trans.insert.i = getelementptr inbounds nuw i8, ptr %46, i64 12
  %.pre.i = load i32, ptr %.phi.trans.insert.i, align 4, !tbaa !20
  %47 = icmp eq i32 %.pre.i, 0
  br i1 %47, label %_Z14luaV_getimportP9lua_StateP8LuaTableP10lua_TValueS4_jb.exit, label %48

48:                                               ; preds = %44
  %49 = zext nneg i32 %26 to i64
  %50 = getelementptr inbounds nuw %struct.lua_TValue, ptr %19, i64 %49
  call void @_Z13luaV_gettableP9lua_StatePK10lua_TValuePS1_S4_(ptr noundef nonnull %0, ptr noundef nonnull %46, ptr noundef %50, ptr noundef nonnull %46)
  br label %_Z14luaV_getimportP9lua_StateP8LuaTableP10lua_TValueS4_jb.exit

_Z14luaV_getimportP9lua_StateP8LuaTableP10lua_TValueS4_jb.exit: ; preds = %13, %35, %41, %44, %48
  call void @llvm.lifetime.end.p0(i64 16, ptr nonnull %3) #10
  ret void
}